; Function Attrs: mustprogress nounwind uwtable
define hidden void @_ZNK22ShenandoahBarrierSetC220eliminate_gc_barrierEP16PhaseMacroExpandP4Node(ptr nocapture noundef nonnull readnone align 8 dereferenceable(8) %0, ptr nocapture noundef readonly %1, ptr noundef %2) unnamed_addr #1 align 2 {
  %4 = getelementptr inbounds i8, ptr %2, i64 44
  %5 = load i32, ptr %4, align 4
  %6 = and i32 %5, 63
  %7 = icmp eq i32 %6, 55
  br i1 %7, label %_ZN22ShenandoahBarrierSetC225is_shenandoah_wb_pre_callEP4Node.exit, label %_ZN22ShenandoahBarrierSetC225is_shenandoah_wb_pre_callEP4Node.exit.thread

_ZN22ShenandoahBarrierSetC225is_shenandoah_wb_pre_callEP4Node.exit: ; preds = %3
  %8 = getelementptr inbounds i8, ptr %2, i64 96
  %9 = load ptr, ptr %8, align 8
  %10 = icmp eq ptr %9, @_ZN17ShenandoahRuntime25write_ref_field_pre_entryEP7oopDescP10JavaThread
  br i1 %10, label %11, label %_ZN22ShenandoahBarrierSetC225is_shenandoah_wb_pre_callEP4Node.exit.thread

11:                                               ; preds = %_ZN22ShenandoahBarrierSetC225is_shenandoah_wb_pre_callEP4Node.exit
  %12 = getelementptr inbounds i8, ptr %1, i64 16
  %13 = load ptr, ptr %12, align 8
  tail call void @_ZNK22ShenandoahBarrierSetC227shenandoah_eliminate_wb_preEP4NodeP12PhaseIterGVN(ptr nonnull align 8 poison, ptr noundef %2, ptr noundef nonnull %13)
  br label %_ZN22ShenandoahBarrierSetC225is_shenandoah_wb_pre_callEP4Node.exit.thread

_ZN22ShenandoahBarrierSetC225is_shenandoah_wb_pre_callEP4Node.exit.thread: ; preds = %3, %11, %_ZN22ShenandoahBarrierSetC225is_shenandoah_wb_pre_callEP4Node.exit
  ret void
}